target datalayout = "e-m:e-p270:32:32-p271:32:32-p272:64:64-i64:64-i128:128-f80:128-n8:16:32:64-S128"
target triple = "x86_64-pc-linux-gnu"

; Function Attrs: nounwind uwtable
define hidden ptr @lj_strfmt_num(ptr noundef %0, ptr noundef %1) #0 {
  %3 = alloca ptr, align 8
  %4 = alloca ptr, align 8
  %5 = alloca [32 x i8], align 16
  %6 = alloca i32, align 4
  store ptr %0, ptr %3, align 8, !tbaa !43
  store ptr %1, ptr %4, align 8, !tbaa !45
  call void @llvm.lifetime.start.p0(i64 32, ptr %5) #7
  call void @llvm.lifetime.start.p0(i64 4, ptr %6) #7
  %7 = load ptr, ptr %4, align 8, !tbaa !45
  %8 = load double, ptr %7, align 8, !tbaa !19
  %9 = getelementptr inbounds [32 x i8], ptr %5, i64 0, i64 0
  %10 = call ptr @lj_strfmt_wfnum(ptr noundef null, i32 noundef 251658293, double noundef %8, ptr noundef %9)
  %11 = getelementptr inbounds [32 x i8], ptr %5, i64 0, i64 0
  %12 = ptrtoint ptr %10 to i64
  %13 = ptrtoint ptr %11 to i64
  %14 = sub i64 %12, %13
  %15 = trunc i64 %14 to i32
  store i32 %15, ptr %6, align 4, !tbaa !9
  %16 = load ptr, ptr %3, align 8, !tbaa !43
  %17 = getelementptr inbounds [32 x i8], ptr %5, i64 0, i64 0
  %18 = load i32, ptr %6, align 4, !tbaa !9
  %19 = zext i32 %18 to i64
  %20 = call ptr @lj_str_new(ptr noundef %16, ptr noundef %17, i64 noundef %19)
  call void @llvm.lifetime.end.p0(i64 4, ptr %6) #7
  call void @llvm.lifetime.end.p0(i64 32, ptr %5) #7
  ret ptr %20
}