; Function Attrs: nounwind uwtable
define hidden ptr @lj_strfmt_num(ptr noundef %0, ptr noundef readonly captures(none) %1) local_unnamed_addr #0 {
  %3 = alloca [32 x i8], align 16
  call void @llvm.lifetime.start.p0(i64 32, ptr nonnull %3) #7
  %4 = load double, ptr %1, align 8, !tbaa !14
  %5 = call fastcc ptr @lj_strfmt_wfnum(ptr noundef null, i32 noundef 251658293, double noundef %4, ptr noundef nonnull %3)
  %6 = ptrtoint ptr %5 to i64
  %7 = ptrtoint ptr %3 to i64
  %8 = sub i64 %6, %7
  %9 = and i64 %8, 4294967295
  %10 = call ptr @lj_str_new(ptr noundef %0, ptr noundef nonnull %3, i64 noundef %9) #7
  call void @llvm.lifetime.end.p0(i64 32, ptr nonnull %3) #7
  ret ptr %10
}